Certificate:
    Data:
        Version: 3 (0x2)
        Serial Number: 0 (0x0)
        Signature Algorithm: sha1WithRSAEncryption
        Issuer: C=JP, ST=tokyo, O=ipride,co. Ltd, OU=system, CN=jiang/emailAddress=jiang@ipride.co.jp
        Validity
            Not Before: Mar 11 11:36:19 2007 GMT
            Not After : Mar  3 11:36:19 2037 GMT
        Subject: C=JP, ST=tokyo, O=ipride,co. Ltd, OU=system, CN=jiang/emailAddress=jiang@ipride.co.jp
        Subject Public Key Info:
            Public Key Algorithm: rsaEncryption
            RSA Public Key: (1024 bit)
                Modulus (1024 bit):
                    00:d1:67:da:6c:2d:4c:f6:c9:e2:1b:87:ed:dd:4c:
                    f1:dd:cb:39:8b:e4:86:53:e0:6a:3c:27:a1:0c:c9:
                    3a:a2:58:1d:91:aa:4f:cf:78:cd:21:a5:79:dd:73:
                    9c:3e:91:e8:32:73:81:48:13:1b:43:6a:33:97:0a:
                    03:31:fd:76:1d:69:6a:4b:66:34:b8:64:83:a5:f0:
                    7d:87:ec:34:d0:56:78:49:36:4d:28:ea:0c:e8:a9:
                    bc:cb:d2:a9:74:98:22:7d:86:2a:55:1c:86:a7:69:
                    21:21:c7:75:a9:0c:7d:20:70:c3:c5:de:55:99:b3:
                    58:ff:00:eb:32:e2:7f:7c:4f
                Exponent: 65537 (0x10001)
        X509v3 extensions:
            X509v3 Basic Constraints: 
                CA:FALSE
            Netscape Comment: 
                OpenSSL Generated Certificate
            X509v3 Subject Key Identifier: 
                2A:D1:DA:02:96:0F:B8:EA:7B:6C:6D:F8:88:27:D8:12:AF:1A:90:A5
            X509v3 Authority Key Identifier: 
                keyid:2A:D1:DA:02:96:0F:B8:EA:7B:6C:6D:F8:88:27:D8:12:AF:1A:90:A5

    Signature Algorithm: sha1WithRSAEncryption
        8d:83:3a:c6:e4:e5:cf:74:88:e9:51:a6:08:d7:9c:47:3e:26:
        64:ac:5f:bf:2e:4b:af:e6:da:35:58:af:b0:df:ee:36:d0:a4:
        90:1f:0e:c1:8c:35:e1:40:6a:65:03:4d:3a:9c:06:18:9f:d8:
        95:d9:25:90:d9:eb:80:e4:86:d5:96:d6:40:41:88:b6:f2:0f:
        73:f4:0d:70:00:38:61:9e:de:ad:de:37:46:80:73:3a:93:99:
        84:4a:cd:1f:bc:f4:ed:ff:e8:ab:02:fc:aa:82:11:61:c2:b8:
        8f:28:c3:7a:c1:ee:ff:d7:6c:ef:2b:07:5e:ec:6e:8e:06:3c:
        1b:de
-----BEGIN CERTIFICATE-----
MIIC5TCCAk6gAwIBAgIBADANBgkqhkiG9w0BAQUFADB6MQswCQYDVQQGEwJKUDEO
MAwGA1UECBMFdG9reW8xFzAVBgNVBAoTDmlwcmlkZSxjby4gTHRkMQ8wDQYDVQQL
EwZzeXN0ZW0xDjAMBgNVBAMTBWppYW5nMSEwHwYJKoZIhvcNAQkBFhJqaWFuZ0Bp
cHJpZGUuY28uanAwHhcNMDcwMzExMTEzNjE5WhcNMzcwMzAzMTEzNjE5WjB6MQsw
CQYDVQQGEwJKUDEOMAwGA1UECBMFdG9reW8xFzAVBgNVBAoTDmlwcmlkZSxjby4g
THRkMQ8wDQYDVQQLEwZzeXN0ZW0xDjAMBgNVBAMTBWppYW5nMSEwHwYJKoZIhvcN
AQkBFhJqaWFuZ0BpcHJpZGUuY28uanAwgZ8wDQYJKoZIhvcNAQEBBQADgY0AMIGJ
AoGBANFn2mwtTPbJ4huH7d1M8d3LOYvkhlPgajwnoQzJOqJYHZGqT894zSGled1z
nD6R6DJzgUgTG0NqM5cKAzH9dh1paktmNLhkg6XwfYfsNNBWeEk2TSjqDOipvMvS
qXSYIn2GKlUchqdpISHHdakMfSBww8XeVZmzWP8A6zLif3xPAgMBAAGjezB5MAkG
A1UdEwQCMAAwLAYJYIZIAYb4QgENBB8WHU9wZW5TU0wgR2VuZXJhdGVkIENlcnRp
ZmljYXRlMB0GA1UdDgQWBBQq0doClg+46ntsbfiIJ9gSrxqQpTAfBgNVHSMEGDAW
gBQq0doClg+46ntsbfiIJ9gSrxqQpTANBgkqhkiG9w0BAQUFAAOBgQCNgzrG5OXP
dIjpUaYI15xHPiZkrF+/Lkuv5to1WK+w3+420KSQHw7BjDXhQGplA006nAYYn9iV
2SWQ2euA5IbVltZAQYi28g9z9A1wADhhnt6t3jdGgHM6k5mESs0fvPTt/+irAvyq
ghFhwriPKMN6we7/12zvKwde7G6OBjwb3g==
-----END CERTIFICATE-----
